; Function Attrs: nounwind uwtable
define dso_local noundef i32 @uv_read_stop(ptr noundef %0) local_unnamed_addr #0 {
  %2 = getelementptr inbounds nuw i8, ptr %0, i64 88
  %3 = load i32, ptr %2, align 8
  %4 = and i32 %3, 4096
  %.not = icmp eq i32 %4, 0
  br i1 %.not, label %23, label %5

5:                                                ; preds = %1
  %6 = and i32 %3, -4097
  store i32 %6, ptr %2, align 8
  %7 = getelementptr inbounds nuw i8, ptr %0, i64 8
  %8 = load ptr, ptr %7, align 8
  %9 = getelementptr inbounds nuw i8, ptr %0, i64 136
  tail call void @uv__io_stop(ptr noundef %8, ptr noundef nonnull %9, i32 noundef 1) #12
  %10 = load i32, ptr %2, align 8
  %11 = and i32 %10, 4
  %12 = icmp eq i32 %11, 0
  br i1 %12, label %21, label %13

13:                                               ; preds = %5
  %14 = and i32 %10, -5
  store i32 %14, ptr %2, align 8
  %15 = and i32 %10, 8
  %.not11 = icmp eq i32 %15, 0
  br i1 %.not11, label %21, label %16

16:                                               ; preds = %13
  %17 = load ptr, ptr %7, align 8
  %18 = getelementptr inbounds nuw i8, ptr %17, i64 8
  %19 = load i32, ptr %18, align 8
  %20 = add i32 %19, -1
  store i32 %20, ptr %18, align 8
  br label %21

21:                                               ; preds = %13, %16, %5
  %22 = getelementptr inbounds nuw i8, ptr %0, i64 104
  tail call void @llvm.memset.p0.i64(ptr noundef nonnull align 8 dereferenceable(16) %22, i8 0, i64 16, i1 false)
  br label %23

23:                                               ; preds = %1, %21
  ret i32 0
}